target datalayout = "e-m:e-p270:32:32-p271:32:32-p272:64:64-i64:64-i128:128-f80:128-n8:16:32:64-S128"
target triple = "x86_64-pc-linux-gnu"

%struct._prefix_stats = type { ptr, i64, i64, i64, i64, i64, ptr }

; Function Attrs: nounwind uwtable
define dso_local void @stats_prefix_record_delete(ptr noundef %0, i64 noundef %1) #0 {
  %3 = alloca ptr, align 8
  %4 = alloca i64, align 8
  %5 = alloca ptr, align 8
  store ptr %0, ptr %3, align 8, !tbaa !20
  store i64 %1, ptr %4, align 8, !tbaa !21
  call void @llvm.lifetime.start.p0(i64 8, ptr %5) #9
  call void @STATS_LOCK()
  %6 = load ptr, ptr %3, align 8, !tbaa !20
  %7 = load i64, ptr %4, align 8, !tbaa !21
  %8 = call ptr @stats_prefix_find(ptr noundef %6, i64 noundef %7)
  store ptr %8, ptr %5, align 8, !tbaa !9
  %9 = load ptr, ptr %5, align 8, !tbaa !9
  %10 = icmp ne ptr null, %9
  br i1 %10, label %11, label %16

11:                                               ; preds = %2
  %12 = load ptr, ptr %5, align 8, !tbaa !9
  %13 = getelementptr inbounds nuw %struct._prefix_stats, ptr %12, i32 0, i32 4
  %14 = load i64, ptr %13, align 8, !tbaa !32
  %15 = add i64 %14, 1
  store i64 %15, ptr %13, align 8, !tbaa !32
  br label %16

16:                                               ; preds = %11, %2
  call void @STATS_UNLOCK()
  call void @llvm.lifetime.end.p0(i64 8, ptr %5) #9
  ret void
}